; Function Attrs: nounwind uwtable
define ptr @l_Lean_PersistentHashMap_foldlMAux_traverse___at_Lean_PersistentHashSet_forIn___spec__6___rarg___lambda__1___boxed(ptr noundef %0, ptr noundef %1, ptr noundef %2, ptr noundef %3, ptr noundef %4, ptr noundef %5) #0 {
  %7 = ptrtoint ptr %0 to i64
  %8 = and i64 %7, 1
  %.not.i8 = icmp eq i64 %8, 0
  br i1 %.not.i8, label %20, label %9, !prof !16

9:                                                ; preds = %6
  %10 = lshr i64 %7, 1
  %11 = add nuw i64 %10, 1
  %12 = icmp sgt i64 %11, -1
  br i1 %12, label %13, label %17, !prof !13

13:                                               ; preds = %9
  %14 = shl nuw i64 %11, 1
  %15 = or disjoint i64 %14, 1
  %16 = inttoptr i64 %15 to ptr
  br label %l_Lean_PersistentHashMap_foldlMAux_traverse___at_Lean_PersistentHashSet_forIn___spec__6___rarg___lambda__1.exit.thread

17:                                               ; preds = %9
  %18 = tail call ptr @lean_big_usize_to_nat(i64 noundef range(i64 0, -1) %11) #3
  br label %l_Lean_PersistentHashMap_foldlMAux_traverse___at_Lean_PersistentHashSet_forIn___spec__6___rarg___lambda__1.exit.thread

l_Lean_PersistentHashMap_foldlMAux_traverse___at_Lean_PersistentHashSet_forIn___spec__6___rarg___lambda__1.exit.thread: ; preds = %13, %17
  %.0.i.i.ph = phi ptr [ %18, %17 ], [ %16, %13 ]
  %19 = tail call ptr @l_Lean_PersistentHashMap_foldlMAux_traverse___at_Lean_PersistentHashSet_forIn___spec__6___rarg(ptr noundef %1, ptr nonnull poison, ptr nonnull poison, ptr nonnull poison, ptr noundef %2, ptr noundef %3, ptr noundef %4, ptr nonnull poison, ptr noundef %.0.i.i.ph, ptr noundef %5)
  br label %lean_dec.exit

20:                                               ; preds = %6
  %21 = tail call ptr @lean_nat_big_add(ptr noundef %0, ptr noundef nonnull inttoptr (i64 3 to ptr)) #3
  %22 = tail call ptr @l_Lean_PersistentHashMap_foldlMAux_traverse___at_Lean_PersistentHashSet_forIn___spec__6___rarg(ptr noundef %1, ptr nonnull poison, ptr nonnull poison, ptr nonnull poison, ptr noundef %2, ptr noundef %3, ptr noundef %4, ptr nonnull poison, ptr noundef %21, ptr noundef %5)
  %23 = load i32, ptr %0, align 4, !tbaa !4
  %24 = icmp sgt i32 %23, 1
  br i1 %24, label %25, label %27, !prof !13

25:                                               ; preds = %20
  %26 = add nsw i32 %23, -1
  store i32 %26, ptr %0, align 4, !tbaa !4
  br label %lean_dec.exit

27:                                               ; preds = %20
  %.not.i = icmp eq i32 %23, 0
  br i1 %.not.i, label %lean_dec.exit, label %28

28:                                               ; preds = %27
  tail call void @lean_dec_ref_cold(ptr noundef nonnull %0) #3
  br label %lean_dec.exit

lean_dec.exit:                                    ; preds = %28, %27, %25, %l_Lean_PersistentHashMap_foldlMAux_traverse___at_Lean_PersistentHashSet_forIn___spec__6___rarg___lambda__1.exit.thread
  %29 = phi ptr [ %19, %l_Lean_PersistentHashMap_foldlMAux_traverse___at_Lean_PersistentHashSet_forIn___spec__6___rarg___lambda__1.exit.thread ], [ %22, %25 ], [ %22, %27 ], [ %22, %28 ]
  ret ptr %29
}